target datalayout = "e-m:e-p270:32:32-p271:32:32-p272:64:64-i64:64-i128:128-f80:128-n8:16:32:64-S128"
target triple = "x86_64-pc-linux-gnu"

%"struct.faiss::InvertedLists::ScopedCodes" = type { ptr, ptr, i64 }
%"struct.faiss::InvertedLists::ScopedIds" = type { ptr, ptr, i64 }
%"struct.faiss::(anonymous namespace)::CodeArrayIterator" = type { %"struct.faiss::InvertedListsIterator", i64, i64, %"struct.faiss::InvertedLists::ScopedCodes", %"struct.faiss::InvertedLists::ScopedIds", i64 }
%"struct.faiss::InvertedListsIterator" = type { ptr }
%"struct.std::pair" = type { i64, ptr }

; Function Attrs: mustprogress nounwind uwtable
define linkonce_odr void @_ZNSt4pairIlPKhEC2IlS1_TnNSt9enable_ifIXaaclsr5_PCCPE22_MoveConstructiblePairIT_T0_EEclsr5_PCCPE30_ImplicitlyMoveConvertiblePairIS5_S6_EEEbE4typeELb1EEEOS5_OS6_(ptr noundef nonnull align 8 dereferenceable(16) %0, ptr noundef nonnull align 8 dereferenceable(8) %1, ptr noundef nonnull align 8 dereferenceable(8) %2) unnamed_addr #1 comdat align 2 {
  %4 = alloca ptr, align 8
  %5 = alloca ptr, align 8
  %6 = alloca ptr, align 8
  store ptr %0, ptr %4, align 8, !tbaa !180
  store ptr %1, ptr %5, align 8, !tbaa !15
  store ptr %2, ptr %6, align 8, !tbaa !182
  %7 = load ptr, ptr %4, align 8
  %8 = getelementptr inbounds nuw %"struct.std::pair", ptr %7, i32 0, i32 0
  %9 = load ptr, ptr %5, align 8, !tbaa !15
  %10 = load i64, ptr %9, align 8, !tbaa !11
  store i64 %10, ptr %8, align 8, !tbaa !184
  %11 = getelementptr inbounds nuw %"struct.std::pair", ptr %7, i32 0, i32 1
  %12 = load ptr, ptr %6, align 8, !tbaa !182
  %13 = load ptr, ptr %12, align 8, !tbaa !13
  store ptr %13, ptr %11, align 8, !tbaa !186
  ret void
}

; Function Attrs: mustprogress nounwind uwtable
define linkonce_odr noundef ptr @_ZN5faiss13InvertedLists11ScopedCodes3getEv(ptr noundef nonnull align 8 dereferenceable(24) %0) #1 comdat align 2 {
  %2 = alloca ptr, align 8
  store ptr %0, ptr %2, align 8, !tbaa !78
  %3 = load ptr, ptr %2, align 8
  %4 = getelementptr inbounds nuw %"struct.faiss::InvertedLists::ScopedCodes", ptr %3, i32 0, i32 1
  %5 = load ptr, ptr %4, align 8, !tbaa !82
  ret ptr %5
}

; Function Attrs: mustprogress nounwind uwtable
define linkonce_odr noundef i64 @_ZNK5faiss13InvertedLists9ScopedIdsixEm(ptr noundef nonnull align 8 dereferenceable(24) %0, i64 noundef %1) #1 comdat align 2 {
  %3 = alloca ptr, align 8
  %4 = alloca i64, align 8
  store ptr %0, ptr %3, align 8, !tbaa !72
  store i64 %1, ptr %4, align 8, !tbaa !11
  %5 = load ptr, ptr %3, align 8
  %6 = getelementptr inbounds nuw %"struct.faiss::InvertedLists::ScopedIds", ptr %5, i32 0, i32 1
  %7 = load ptr, ptr %6, align 8, !tbaa !76
  %8 = load i64, ptr %4, align 8, !tbaa !11
  %9 = getelementptr inbounds nuw i64, ptr %7, i64 %8
  %10 = load i64, ptr %9, align 8, !tbaa !11
  ret i64 %10
}

; Function Attrs: mustprogress uwtable
define internal { i64, ptr } @_ZN5faiss12_GLOBAL__N_117CodeArrayIterator16get_id_and_codesEv(ptr noundef nonnull align 8 dereferenceable(80) %0) unnamed_addr #2 align 2 {
  %2 = alloca %"struct.std::pair", align 8
  %3 = alloca ptr, align 8
  %4 = alloca i64, align 8
  %5 = alloca ptr, align 8
  store ptr %0, ptr %3, align 8, !tbaa !173
  %6 = load ptr, ptr %3, align 8
  call void @llvm.lifetime.start.p0(i64 8, ptr %4) #6
  %7 = getelementptr inbounds nuw %"struct.faiss::(anonymous namespace)::CodeArrayIterator", ptr %6, i32 0, i32 4
  %8 = getelementptr inbounds nuw %"struct.faiss::(anonymous namespace)::CodeArrayIterator", ptr %6, i32 0, i32 5
  %9 = load i64, ptr %8, align 8, !tbaa !179
  %10 = call noundef i64 @_ZNK5faiss13InvertedLists9ScopedIdsixEm(ptr noundef nonnull align 8 dereferenceable(24) %7, i64 noundef %9)
  store i64 %10, ptr %4, align 8, !tbaa !11
  call void @llvm.lifetime.start.p0(i64 8, ptr %5) #6
  %11 = getelementptr inbounds nuw %"struct.faiss::(anonymous namespace)::CodeArrayIterator", ptr %6, i32 0, i32 3
  %12 = call noundef ptr @_ZN5faiss13InvertedLists11ScopedCodes3getEv(ptr noundef nonnull align 8 dereferenceable(24) %11)
  %13 = getelementptr inbounds nuw %"struct.faiss::(anonymous namespace)::CodeArrayIterator", ptr %6, i32 0, i32 2
  %14 = load i64, ptr %13, align 8, !tbaa !178
  %15 = getelementptr inbounds nuw %"struct.faiss::(anonymous namespace)::CodeArrayIterator", ptr %6, i32 0, i32 5
  %16 = load i64, ptr %15, align 8, !tbaa !179
  %17 = mul i64 %14, %16
  %18 = getelementptr inbounds nuw i8, ptr %12, i64 %17
  store ptr %18, ptr %5, align 8, !tbaa !13
  call void @_ZNSt4pairIlPKhEC2IlS1_TnNSt9enable_ifIXaaclsr5_PCCPE22_MoveConstructiblePairIT_T0_EEclsr5_PCCPE30_ImplicitlyMoveConvertiblePairIS5_S6_EEEbE4typeELb1EEEOS5_OS6_(ptr noundef nonnull align 8 dereferenceable(16) %2, ptr noundef nonnull align 8 dereferenceable(8) %4, ptr noundef nonnull align 8 dereferenceable(8) %5)
  call void @llvm.lifetime.end.p0(i64 8, ptr %5) #6
  call void @llvm.lifetime.end.p0(i64 8, ptr %4) #6
  %19 = load { i64, ptr }, ptr %2, align 8
  ret { i64, ptr } %19
}