; Function Attrs: mustprogress nofree norecurse nosync nounwind willreturn memory(read, inaccessiblemem: none) uwtable
define internal { i64, ptr } @_ZN5faiss12_GLOBAL__N_117CodeArrayIterator16get_id_and_codesEv(ptr noundef nonnull readonly align 8 captures(none) dereferenceable(80) %0) unnamed_addr #6 align 2 {
  %2 = getelementptr inbounds nuw i8, ptr %0, i64 72
  %3 = load i64, ptr %2, align 8, !tbaa !38
  %4 = getelementptr inbounds nuw i8, ptr %0, i64 56
  %5 = load ptr, ptr %4, align 8, !tbaa !36
  %6 = getelementptr inbounds nuw i64, ptr %5, i64 %3
  %7 = load i64, ptr %6, align 8, !tbaa !7
  %8 = getelementptr inbounds nuw i8, ptr %0, i64 32
  %9 = load ptr, ptr %8, align 8, !tbaa !33
  %10 = getelementptr inbounds nuw i8, ptr %0, i64 16
  %11 = load i64, ptr %10, align 8, !tbaa !31
  %12 = mul i64 %11, %3
  %13 = getelementptr inbounds nuw i8, ptr %9, i64 %12
  %.fca.0.insert = insertvalue { i64, ptr } poison, i64 %7, 0
  %.fca.1.insert = insertvalue { i64, ptr } %.fca.0.insert, ptr %13, 1
  ret { i64, ptr } %.fca.1.insert
}